(dp1
S'hlayer'
p2
(dp3
I0
(lp4
F1.2570097146946775
aF0.53920674747615616
aF0.55003265085796627
aF2.2448285913475319
aF-0.32837287123092668
aF0.11920100499751364
aF-1.5404014132164274
aF1.8192723921608569
aF1.2103796642631144
aF-0.16741785433585343
aF0.16036194737560602
aF0.0018747423269561136
aF-1.6399208698200596
aF0.10232168166288957
aF-0.048989691598111479
aF1.4978856271946077
aF0.50963459157789859
aF0.26297877940736836
aF0.12267547633916367
aF0.1608663801758331
aF-2.2496762533884973
aF-0.03437319030891503
aF-0.5804279861444388
aF-1.4857771380448739
aF-1.3339034857345415
aF-0.0014855195403780373
aF-0.026331265818486521
aF-0.78231920820087275
aF1.1579544068197878
aF0.60701092340846996
aF-0.0098256655657023243
aF0.21043385978136633
aF0.093968007747842794
aF0.12201113080520892
aF-0.18381398556533307
aF-0.86517922987870843
aF1.5319653486409381
aF-0.18035810440852304
aF-0.4591361812311317
aF-1.619829166950749
aF-1.264692166278798
asI1
(lp5
F-0.45644897253058275
aF0.18627555890184963
aF-0.66370173000102484
aF-1.0212834915581717
aF0.72027384960048058
aF0.031840367531306979
aF0.87146000973929705
aF-0.77117125196728964
aF-0.31401333549013238
aF0.078526724765759975
aF-0.2938207305872817
aF-0.071978158130981712
aF1.1490943743906112
aF0.17313352969076273
aF-0.1928963351370914
aF-0.50979357012261228
aF-0.28500790440787904
aF-0.71204928052172511
aF0.12898143352913494
aF0.016113442788129595
aF1.0779842688312469
aF-0.15069211622700496
aF0.51323687783181726
aF1.126963837180009
aF0.6870783635896266
aF0.34260336158347199
aF0.030260405665955392
aF0.0401597137784689
aF-0.68780852671319592
aF-0.36877603107162793
aF0.047377329791378313
aF-0.15353500958979063
aF0.12465768647887571
aF-0.16407025552176255
aF0.66534110597861884
aF0.45371347607683138
aF-0.59199275714338517
aF0.25866959478877183
aF0.50378110535199483
aF1.5661529845460058
aF0.56740745512213842
asI2
(lp6
F0.027591568130500302
aF-0.4456723386847965
aF-0.19158307920664347
aF-0.16607194933696584
aF0.16935893264318289
aF-0.071743362245993689
aF-0.083339518115098099
aF0.062460920263263983
aF-0.11205958888247625
aF0.07613648693525954
aF0.1616559850082642
aF0.16677648717898247
aF-0.24435893491071761
aF-0.16705080472134104
aF-0.25150800466139545
aF-0.14862630296444224
aF-0.10204586658950827
aF0.10544586464569114
aF-0.10254900001950561
aF0.092595688316339131
aF-0.47386067619256034
aF-0.29940603678966915
aF0.11752003856568952
aF-0.31453739575467354
aF0.19034217818285995
aF-0.074180286001357718
aF-0.14145660443507846
aF-0.2499235540241681
aF-0.16758005309800078
aF0.022362470092043951
aF0.16402323159732277
aF-0.19223702919572863
aF-0.088213326360803826
aF-0.18932128213511792
aF-0.014799444829820091
aF-0.16196110376150924
aF-0.079576657152889932
aF-0.042555431528619007
aF-0.28893936313814395
aF-0.13782865713694942
aF-0.35204944288064854
assS'olayer'
p7
(dp8
I0
(lp9
F2.0432730638973013
aF0.14138484688091207
aF-1.7862458489656852
ass.